(dp0
S'24'
p1
(F0.0
F0.4
tp2
sS'20'
p3
(F0.4
F0.8
tp4
sS'21'
p5
(F0.4
F0.0
tp6
sS'22'
p7
(F0.8
F0.6
tp8
sS'23'
p9
(F0.6
F0.8
tp10
sS'1'
p11
(F0.6
F0.0
tp12
sS'0'
p13
(F0.2
F0.6
tp14
sS'3'
p15
(F0.0
F0.6
tp16
sS'2'
p17
(F0.4
F0.2
tp18
sS'5'
p19
(F0.2
F0.4
tp20
sS'4'
p21
(F0.8
F0.0
tp22
sS'7'
p23
(F0.8
F0.8
tp24
sS'6'
p25
(F0.6
F0.6
tp26
sS'9'
p27
(F0.8
F0.2
tp28
sS'8'
p29
(F0.4
F0.4
tp30
sS'11'
p31
(F0.6
F0.4
tp32
sS'10'
p33
(F0.2
F0.2
tp34
sS'13'
p35
(F0.0
F0.8
tp36
sS'12'
p37
(F0.0
F0.0
tp38
sS'15'
p39
(F0.4
F0.6
tp40
sS'14'
p41
(F0.2
F0.8
tp42
sS'17'
p43
(F0.2
F0.0
tp44
sS'16'
p45
(F0.8
F0.4
tp46
sS'19'
p47
(F0.6
F0.2
tp48
sS'18'
p49
(F0.0
F0.2
tp50
s.